target datalayout = "e-m:e-p270:32:32-p271:32:32-p272:64:64-i64:64-i128:128-f80:128-n8:16:32:64-S128"
target triple = "x86_64-pc-linux-gnu"

%struct.AVProbeData = type { ptr, ptr, i32, ptr }
%struct.AVRational = type { i32, i32 }
%struct.AVFormatContext = type { ptr, ptr, ptr, ptr, ptr, i32, i32, ptr, i32, ptr, i32, ptr, ptr, i64, i64, i64, i32, i32, i32, i64, i64, ptr, i32, i32, ptr, i32, i32, i32, i32, ptr, i64, i32, i32, %struct.AVIOInterruptCB, i32, i32, i32, i32, i64, i32, i32, i32, i32, i32, i32, i32, i32, i32, i32, i32, i32, i64, i32, i32, i32, i32, i32, ptr, ptr, ptr, ptr, i32, ptr, ptr, ptr, ptr, i32, ptr, ptr, i64, ptr, ptr, ptr, i64 }
%struct.AVIOInterruptCB = type { ptr, ptr }
%struct.AVStream = type { ptr, i32, i32, ptr, ptr, %struct.AVRational, i64, i64, i64, i32, i32, %struct.AVRational, ptr, %struct.AVRational, %struct.AVPacket, i32, %struct.AVRational, i32 }
%struct.AVPacket = type { ptr, i64, i64, ptr, i32, i32, i32, ptr, i32, i64, i64, ptr, ptr, %struct.AVRational }
%struct.AVIStream = type { i64, i32, i32, i32, i32, i32, i32, i64, i32, i32, [256 x i32], i32, i32, ptr, ptr, ptr, i64 }
%struct.FFStream = type { %struct.AVStream, ptr, i32, ptr, i32, ptr, i32, %struct.anon, i32, i32, %struct.FFFrac, ptr, ptr, i32, i32, i64, i64, i32, i32, i32, i64, i64, i64, i32, i64, i64, i64, i32, i32, [17 x i64], [17 x i8], [17 x i64], i64, i8, i8, %struct.AVRational, %struct.AVProbeData, ptr, i64, i32, i32, i32, ptr, i32, i32, i64, i64, ptr, %struct.AVRational }
%struct.anon = type { ptr, i32 }
%struct.FFFrac = type { i64, i64, i64 }
%struct.AVIndexEntry = type { i64, i64, i32, i32 }

; Function Attrs: alwaysinline nounwind uwtable
define internal ptr @ffstream(ptr noundef %0) #3 {
  %2 = alloca ptr, align 8
  store ptr %0, ptr %2, align 8, !tbaa !52
  %3 = load ptr, ptr %2, align 8, !tbaa !52
  ret ptr %3
}

; Function Attrs: nounwind uwtable
define internal void @clean_index(ptr noundef %0) #0 {
  %2 = alloca ptr, align 8
  %3 = alloca i32, align 4
  %4 = alloca i64, align 8
  %5 = alloca ptr, align 8
  %6 = alloca ptr, align 8
  %7 = alloca ptr, align 8
  %8 = alloca i32, align 4
  %9 = alloca i32, align 4
  %10 = alloca i64, align 8
  %11 = alloca i64, align 8
  %12 = alloca i64, align 8
  %13 = alloca i32, align 4
  store ptr %0, ptr %2, align 8, !tbaa !17
  call void @llvm.lifetime.start.p0(i64 4, ptr %3) #12
  call void @llvm.lifetime.start.p0(i64 8, ptr %4) #12
  store i32 0, ptr %3, align 4, !tbaa !9
  br label %14

14:                                               ; preds = %114, %1
  %15 = load i32, ptr %3, align 4, !tbaa !9
  %16 = load ptr, ptr %2, align 8, !tbaa !17
  %17 = getelementptr inbounds nuw %struct.AVFormatContext, ptr %16, i32 0, i32 6
  %18 = load i32, ptr %17, align 4, !tbaa !62
  %19 = icmp ult i32 %15, %18
  br i1 %19, label %20, label %117

20:                                               ; preds = %14
  call void @llvm.lifetime.start.p0(i64 8, ptr %5) #12
  %21 = load ptr, ptr %2, align 8, !tbaa !17
  %22 = getelementptr inbounds nuw %struct.AVFormatContext, ptr %21, i32 0, i32 7
  %23 = load ptr, ptr %22, align 8, !tbaa !63
  %24 = load i32, ptr %3, align 4, !tbaa !9
  %25 = sext i32 %24 to i64
  %26 = getelementptr inbounds ptr, ptr %23, i64 %25
  %27 = load ptr, ptr %26, align 8, !tbaa !52
  store ptr %27, ptr %5, align 8, !tbaa !52
  call void @llvm.lifetime.start.p0(i64 8, ptr %6) #12
  %28 = load ptr, ptr %5, align 8, !tbaa !52
  %29 = call ptr @ffstream(ptr noundef %28)
  store ptr %29, ptr %6, align 8, !tbaa !79
  call void @llvm.lifetime.start.p0(i64 8, ptr %7) #12
  %30 = load ptr, ptr %5, align 8, !tbaa !52
  %31 = getelementptr inbounds nuw %struct.AVStream, ptr %30, i32 0, i32 4
  %32 = load ptr, ptr %31, align 8, !tbaa !61
  store ptr %32, ptr %7, align 8, !tbaa !38
  call void @llvm.lifetime.start.p0(i64 4, ptr %8) #12
  %33 = load ptr, ptr %6, align 8, !tbaa !79
  %34 = getelementptr inbounds nuw %struct.FFStream, ptr %33, i32 0, i32 13
  %35 = load i32, ptr %34, align 8, !tbaa !121
  store i32 %35, ptr %8, align 4, !tbaa !9
  call void @llvm.lifetime.start.p0(i64 4, ptr %9) #12
  %36 = load ptr, ptr %7, align 8, !tbaa !38
  %37 = getelementptr inbounds nuw %struct.AVIStream, ptr %36, i32 0, i32 6
  %38 = load i32, ptr %37, align 4, !tbaa !74
  store i32 %38, ptr %9, align 4, !tbaa !9
  call void @llvm.lifetime.start.p0(i64 8, ptr %10) #12
  call void @llvm.lifetime.start.p0(i64 8, ptr %11) #12
  call void @llvm.lifetime.start.p0(i64 8, ptr %12) #12
  %39 = load i32, ptr %8, align 4, !tbaa !9
  %40 = icmp ne i32 %39, 1
  br i1 %40, label %46, label %41

41:                                               ; preds = %20
  %42 = load ptr, ptr %7, align 8, !tbaa !38
  %43 = getelementptr inbounds nuw %struct.AVIStream, ptr %42, i32 0, i32 6
  %44 = load i32, ptr %43, align 4, !tbaa !74
  %45 = icmp eq i32 %44, 0
  br i1 %45, label %46, label %47

46:                                               ; preds = %41, %20
  store i32 4, ptr %13, align 4
  br label %111

47:                                               ; preds = %41
  br label %48

48:                                               ; preds = %51, %47
  %49 = load i32, ptr %9, align 4, !tbaa !9
  %50 = icmp slt i32 %49, 1024
  br i1 %50, label %51, label %55

51:                                               ; preds = %48
  %52 = load i32, ptr %9, align 4, !tbaa !9
  %53 = load i32, ptr %9, align 4, !tbaa !9
  %54 = add nsw i32 %53, %52
  store i32 %54, ptr %9, align 4, !tbaa !9
  br label %48, !llvm.loop !167

55:                                               ; preds = %48
  %56 = load ptr, ptr %6, align 8, !tbaa !79
  %57 = getelementptr inbounds nuw %struct.FFStream, ptr %56, i32 0, i32 12
  %58 = load ptr, ptr %57, align 8, !tbaa !132
  %59 = getelementptr inbounds %struct.AVIndexEntry, ptr %58, i64 0
  %60 = getelementptr inbounds nuw %struct.AVIndexEntry, ptr %59, i32 0, i32 0
  %61 = load i64, ptr %60, align 8, !tbaa !142
  store i64 %61, ptr %10, align 8, !tbaa !40
  %62 = load ptr, ptr %6, align 8, !tbaa !79
  %63 = getelementptr inbounds nuw %struct.FFStream, ptr %62, i32 0, i32 12
  %64 = load ptr, ptr %63, align 8, !tbaa !132
  %65 = getelementptr inbounds %struct.AVIndexEntry, ptr %64, i64 0
  %66 = getelementptr inbounds nuw %struct.AVIndexEntry, ptr %65, i32 0, i32 2
  %67 = load i32, ptr %66, align 8
  %68 = ashr i32 %67, 2
  %69 = sext i32 %68 to i64
  store i64 %69, ptr %11, align 8, !tbaa !40
  %70 = load ptr, ptr %6, align 8, !tbaa !79
  %71 = getelementptr inbounds nuw %struct.FFStream, ptr %70, i32 0, i32 12
  %72 = load ptr, ptr %71, align 8, !tbaa !132
  %73 = getelementptr inbounds %struct.AVIndexEntry, ptr %72, i64 0
  %74 = getelementptr inbounds nuw %struct.AVIndexEntry, ptr %73, i32 0, i32 1
  %75 = load i64, ptr %74, align 8, !tbaa !134
  store i64 %75, ptr %12, align 8, !tbaa !40
  store i64 0, ptr %4, align 8, !tbaa !40
  br label %76

76:                                               ; preds = %105, %55
  %77 = load i64, ptr %4, align 8, !tbaa !40
  %78 = load i64, ptr %11, align 8, !tbaa !40
  %79 = icmp slt i64 %77, %78
  br i1 %79, label %80, label %110

80:                                               ; preds = %76
  %81 = load ptr, ptr %5, align 8, !tbaa !52
  %82 = load i64, ptr %10, align 8, !tbaa !40
  %83 = load i64, ptr %4, align 8, !tbaa !40
  %84 = add nsw i64 %82, %83
  %85 = load i64, ptr %12, align 8, !tbaa !40
  %86 = load i64, ptr %4, align 8, !tbaa !40
  %87 = add nsw i64 %85, %86
  %88 = load i32, ptr %9, align 4, !tbaa !9
  %89 = sext i32 %88 to i64
  %90 = load i64, ptr %11, align 8, !tbaa !40
  %91 = load i64, ptr %4, align 8, !tbaa !40
  %92 = sub nsw i64 %90, %91
  %93 = icmp sgt i64 %89, %92
  br i1 %93, label %94, label %98

94:                                               ; preds = %80
  %95 = load i64, ptr %11, align 8, !tbaa !40
  %96 = load i64, ptr %4, align 8, !tbaa !40
  %97 = sub nsw i64 %95, %96
  br label %101

98:                                               ; preds = %80
  %99 = load i32, ptr %9, align 4, !tbaa !9
  %100 = sext i32 %99 to i64
  br label %101

101:                                              ; preds = %98, %94
  %102 = phi i64 [ %97, %94 ], [ %100, %98 ]
  %103 = trunc i64 %102 to i32
  %104 = call i32 @av_add_index_entry(ptr noundef %81, i64 noundef %84, i64 noundef %87, i32 noundef %103, i32 noundef 0, i32 noundef 1)
  br label %105

105:                                              ; preds = %101
  %106 = load i32, ptr %9, align 4, !tbaa !9
  %107 = sext i32 %106 to i64
  %108 = load i64, ptr %4, align 8, !tbaa !40
  %109 = add nsw i64 %108, %107
  store i64 %109, ptr %4, align 8, !tbaa !40
  br label %76, !llvm.loop !168

110:                                              ; preds = %76
  store i32 0, ptr %13, align 4
  br label %111

111:                                              ; preds = %110, %46
  call void @llvm.lifetime.end.p0(i64 8, ptr %12) #12
  call void @llvm.lifetime.end.p0(i64 8, ptr %11) #12
  call void @llvm.lifetime.end.p0(i64 8, ptr %10) #12
  call void @llvm.lifetime.end.p0(i64 4, ptr %9) #12
  call void @llvm.lifetime.end.p0(i64 4, ptr %8) #12
  call void @llvm.lifetime.end.p0(i64 8, ptr %7) #12
  call void @llvm.lifetime.end.p0(i64 8, ptr %6) #12
  call void @llvm.lifetime.end.p0(i64 8, ptr %5) #12
  %112 = load i32, ptr %13, align 4
  switch i32 %112, label %118 [
    i32 0, label %113
    i32 4, label %114
  ]

113:                                              ; preds = %111
  br label %114

114:                                              ; preds = %113, %111
  %115 = load i32, ptr %3, align 4, !tbaa !9
  %116 = add nsw i32 %115, 1
  store i32 %116, ptr %3, align 4, !tbaa !9
  br label %14, !llvm.loop !169

117:                                              ; preds = %14
  call void @llvm.lifetime.end.p0(i64 8, ptr %4) #12
  call void @llvm.lifetime.end.p0(i64 4, ptr %3) #12
  ret void

118:                                              ; preds = %111
  unreachable
}