; Function Attrs: nounwind uwtable
define internal fastcc void @clean_index(ptr noundef readonly captures(none) %0) unnamed_addr #1 {
  %2 = getelementptr inbounds nuw i8, ptr %0, i64 44
  %3 = load i32, ptr %2, align 4, !tbaa !54
  %.not38 = icmp eq i32 %3, 0
  br i1 %.not38, label %._crit_edge, label %.lr.ph37

.lr.ph37:                                         ; preds = %1
  %4 = getelementptr inbounds nuw i8, ptr %0, i64 48
  br label %5

5:                                                ; preds = %.lr.ph37, %.loopexit
  %6 = phi i32 [ %3, %.lr.ph37 ], [ %41, %.loopexit ]
  %indvars.iv = phi i64 [ 0, %.lr.ph37 ], [ %indvars.iv.next, %.loopexit ]
  %7 = load ptr, ptr %4, align 8, !tbaa !55
  %8 = getelementptr inbounds nuw ptr, ptr %7, i64 %indvars.iv
  %9 = load ptr, ptr %8, align 8, !tbaa !56
  %10 = getelementptr inbounds nuw i8, ptr %9, i64 328
  %11 = load i32, ptr %10, align 8, !tbaa !105
  %.not = icmp eq i32 %11, 1
  br i1 %.not, label %12, label %.loopexit

12:                                               ; preds = %5
  %13 = getelementptr inbounds nuw i8, ptr %9, i64 24
  %14 = load ptr, ptr %13, align 8, !tbaa !53
  %15 = getelementptr inbounds nuw i8, ptr %14, i64 28
  %16 = load i32, ptr %15, align 4, !tbaa !69
  %17 = icmp eq i32 %16, 0
  br i1 %17, label %.loopexit, label %.preheader

.preheader:                                       ; preds = %12, %.preheader
  %.032 = phi i32 [ %19, %.preheader ], [ %16, %12 ]
  %18 = icmp slt i32 %.032, 1024
  %19 = shl nsw i32 %.032, 1
  br i1 %18, label %.preheader, label %20, !llvm.loop !163

20:                                               ; preds = %.preheader
  %21 = getelementptr inbounds nuw i8, ptr %9, i64 320
  %22 = load ptr, ptr %21, align 8, !tbaa !106
  %23 = load i64, ptr %22, align 8, !tbaa !108
  %24 = getelementptr inbounds nuw i8, ptr %22, i64 16
  %25 = load i32, ptr %24, align 8
  %26 = ashr i32 %25, 2
  %27 = sext i32 %26 to i64
  %28 = getelementptr inbounds nuw i8, ptr %22, i64 8
  %29 = load i64, ptr %28, align 8, !tbaa !113
  %30 = icmp sgt i32 %26, 0
  br i1 %30, label %.lr.ph, label %.loopexit

.lr.ph:                                           ; preds = %20
  %31 = zext nneg i32 %.032 to i64
  br label %32

32:                                               ; preds = %.lr.ph, %32
  %.03135 = phi i64 [ 0, %.lr.ph ], [ %39, %32 ]
  %33 = add nsw i64 %.03135, %23
  %34 = add nsw i64 %.03135, %29
  %35 = sub nsw i64 %27, %.03135
  %36 = tail call i64 @llvm.smin.i64(i64 %35, i64 %31)
  %37 = trunc nsw i64 %36 to i32
  %38 = tail call i32 @av_add_index_entry(ptr noundef nonnull %9, i64 noundef %33, i64 noundef %34, i32 noundef %37, i32 noundef 0, i32 noundef 1) #14
  %39 = add nuw nsw i64 %.03135, %31
  %40 = icmp slt i64 %39, %27
  br i1 %40, label %32, label %.loopexit.loopexit, !llvm.loop !164

.loopexit.loopexit:                               ; preds = %32
  %.pre = load i32, ptr %2, align 4, !tbaa !54
  br label %.loopexit

.loopexit:                                        ; preds = %.loopexit.loopexit, %20, %5, %12
  %41 = phi i32 [ %.pre, %.loopexit.loopexit ], [ %6, %20 ], [ %6, %5 ], [ %6, %12 ]
  %indvars.iv.next = add nuw nsw i64 %indvars.iv, 1
  %42 = zext i32 %41 to i64
  %43 = icmp samesign ult i64 %indvars.iv.next, %42
  br i1 %43, label %5, label %._crit_edge, !llvm.loop !165

._crit_edge:                                      ; preds = %.loopexit, %1
  ret void
}